target datalayout = "e-m:e-p270:32:32-p271:32:32-p272:64:64-i64:64-i128:128-f80:128-n8:16:32:64-S128"
target triple = "x86_64-pc-linux-gnu"

%class.FragmentedWindow = type { [32 x ptr], [32 x i64] }

; Function Attrs: mustprogress nounwind uwtable
define void @_ZN16FragmentedWindow5ResetEv(ptr noundef nonnull align 8 dereferenceable(512) %0) #1 align 2 {
  %2 = alloca ptr, align 8
  %3 = alloca i32, align 4
  store ptr %0, ptr %2, align 8
  %4 = load ptr, ptr %2, align 8
  store i32 0, ptr %3, align 4
  br label %5

5:                                                ; preds = %27, %1
  %6 = load i32, ptr %3, align 4
  %7 = zext i32 %6 to i64
  %8 = icmp ult i64 %7, 32
  br i1 %8, label %9, label %30

9:                                                ; preds = %5
  %10 = getelementptr inbounds %class.FragmentedWindow, ptr %4, i32 0, i32 0
  %11 = load i32, ptr %3, align 4
  %12 = zext i32 %11 to i64
  %13 = getelementptr inbounds [32 x ptr], ptr %10, i64 0, i64 %12
  %14 = load ptr, ptr %13, align 8
  %15 = icmp ne ptr %14, null
  br i1 %15, label %16, label %26

16:                                               ; preds = %9
  %17 = getelementptr inbounds %class.FragmentedWindow, ptr %4, i32 0, i32 0
  %18 = load i32, ptr %3, align 4
  %19 = zext i32 %18 to i64
  %20 = getelementptr inbounds [32 x ptr], ptr %17, i64 0, i64 %19
  %21 = load ptr, ptr %20, align 8
  call void @free(ptr noundef %21) #12
  %22 = getelementptr inbounds %class.FragmentedWindow, ptr %4, i32 0, i32 0
  %23 = load i32, ptr %3, align 4
  %24 = zext i32 %23 to i64
  %25 = getelementptr inbounds [32 x ptr], ptr %22, i64 0, i64 %24
  store ptr null, ptr %25, align 8
  br label %26

26:                                               ; preds = %16, %9
  br label %27

27:                                               ; preds = %26
  %28 = load i32, ptr %3, align 4
  %29 = add i32 %28, 1
  store i32 %29, ptr %3, align 4
  br label %5, !llvm.loop !113

30:                                               ; preds = %5
  ret void
}