; Function Attrs: mustprogress nounwind uwtable
define void @_ZN16FragmentedWindow5ResetEv(ptr nocapture noundef nonnull align 8 dereferenceable(512) %0) local_unnamed_addr #11 align 2 {
  br label %2

2:                                                ; preds = %1, %6
  %indvars.iv = phi i64 [ 0, %1 ], [ %indvars.iv.next, %6 ]
  %3 = getelementptr inbounds [32 x ptr], ptr %0, i64 0, i64 %indvars.iv
  %4 = load ptr, ptr %3, align 8
  %.not = icmp eq ptr %4, null
  br i1 %.not, label %6, label %5

5:                                                ; preds = %2
  tail call void @free(ptr noundef nonnull %4) #21
  store ptr null, ptr %3, align 8
  br label %6

6:                                                ; preds = %2, %5
  %indvars.iv.next = add nuw nsw i64 %indvars.iv, 1
  %exitcond.not = icmp eq i64 %indvars.iv.next, 32
  br i1 %exitcond.not, label %7, label %2, !llvm.loop !113

7:                                                ; preds = %6
  ret void
}